(dp1
(S'S'
S'W'
tp2
F-0.080199999999999994
s(S'G'
S'G'
tp3
F0.22189999999999999
s(S'E'
S'M'
tp4
F0.063700000000000007
s(S'A'
S'N'
tp5
F0.10489999999999999
s(S'A'
S'Y'
tp6
F-0.14080000000000001
s(S'W'
S'Q'
tp7
F-0.053999999999999999
s(S'V'
S'N'
tp8
F0.11799999999999999
s(S'F'
S'K'
tp9
F-0.041599999999999998
s(S'G'
S'E'
tp10
F0.2311
s(S'E'
S'D'
tp11
F0.15809999999999999
s(S'W'
S'P'
tp12
F-0.090999999999999998
s(S'I'
S'T'
tp13
F-0.070000000000000007
s(S'F'
S'D'
tp14
F0.082699999999999996
s(S'K'
S'V'
tp15
F0.060900000000000003
s(S'C'
S'Y'
tp16
F-0.24440000000000001
s(S'G'
S'D'
tp17
F0.1115
s(S'T'
S'N'
tp18
F0.0155
s(S'W'
S'W'
tp19
F-0.1066
s(S'S'
S'S'
tp20
F0.094100000000000003
s(S'K'
S'C'
tp21
F-0.033000000000000002
s(S'E'
S'F'
tp22
F0.088499999999999995
s(S'Y'
S'Q'
tp23
F-0.1431
s(S'A'
S'K'
tp24
F0.069099999999999995
s(S'Q'
S'P'
tp25
F0.11269999999999999
s(S'F'
S'G'
tp26
F0.078899999999999998
s(S'D'
S'S'
tp27
F0.0424
s(S'C'
S'V'
tp28
F-0.2349
s(S'V'
S'T'
tp29
F0.011900000000000001
s(S'H'
S'P'
tp30
F0.029499999999999998
s(S'P'
S'V'
tp31
F0.086800000000000002
s(S'I'
S'Q'
tp32
F-0.048000000000000001
s(S'Y'
S'K'
tp33
F-0.112
s(S'W'
S'T'
tp34
F0.0051999999999999998
s(S'H'
S'F'
tp35
F-0.125
s(S'P'
S'D'
tp36
F0.23860000000000001
s(S'Q'
S'R'
tp37
F0.0058999999999999999
s(S'D'
S'Q'
tp38
F-0.072800000000000004
s(S'K'
S'Q'
tp39
F-0.073499999999999996
s(S'D'
S'F'
tp40
F0.082699999999999996
s(S'V'
S'W'
tp41
F-0.2898
s(S'T'
S'C'
tp42
F-0.0012999999999999999
s(S'A'
S'F'
tp43
F-0.1119
s(S'T'
S'H'
tp44
F0.068099999999999994
s(S'A'
S'Q'
tp45
F-0.045699999999999998
s(S'Q'
S'T'
tp46
F-0.024299999999999999
s(S'V'
S'F'
tp47
F-0.40010000000000001
s(S'F'
S'C'
tp48
F-0.32619999999999999
s(S'C'
S'R'
tp49
F0.054399999999999997
s(S'V'
S'P'
tp50
F0.086800000000000002
s(S'H'
S'T'
tp51
F0.068099999999999994
s(S'E'
S'L'
tp52
F0.080199999999999994
s(S'F'
S'R'
tp53
F-0.090399999999999994
s(S'I'
S'G'
tp54
F0.1174
s(S'C'
S'Q'
tp55
F0.071499999999999994
s(S'Y'
S'V'
tp56
F-0.2792
s(S'T'
S'A'
tp57
F0.031
s(S'T'
S'V'
tp58
F0.011900000000000001
s(S'Q'
S'V'
tp59
F0.1061
s(S'S'
S'K'
tp60
F0.16900000000000001
s(S'K'
S'K'
tp61
F0.1216
s(S'E'
S'N'
tp62
F0.11459999999999999
s(S'N'
S'T'
tp63
F0.0155
s(S'A'
S'H'
tp64
F0.026599999999999999
s(S'A'
S'C'
tp65
F-0.1085
s(S'V'
S'S'
tp66
F0.17660000000000001
s(S'Q'
S'H'
tp67
F-0.012500000000000001
s(S'H'
S'S'
tp68
F-0.00050000000000000001
s(S'Q'
S'Y'
tp69
F-0.1431
s(S'P'
S'N'
tp70
F0.156
s(S'I'
S'Y'
tp71
F-0.31640000000000001
s(S'P'
S'G'
tp72
F0.21310000000000001
s(S'F'
S'N'
tp73
F0.0018
s(S'H'
S'N'
tp74
F0.038600000000000002
s(S'K'
S'H'
tp75
F0.039
s(S'N'
S'W'
tp76
F-0.025000000000000001
s(S'S'
S'Y'
tp77
F0.021399999999999999
s(S'W'
S'N'
tp78
F-0.025000000000000001
s(S'D'
S'Y'
tp79
F-0.11650000000000001
s(S'E'
S'Q'
tp80
F-0.041300000000000003
s(S'K'
S'Y'
tp81
F-0.112
s(S'S'
S'G'
tp82
F0.1075
s(S'Y'
S'S'
tp83
F0.021399999999999999
s(S'G'
S'R'
tp84
F-0.025100000000000001
s(S'A'
S'L'
tp85
F-0.1711
s(S'A'
S'G'
tp86
F0.18440000000000001
s(S'T'
S'K'
tp87
F0.046699999999999998
s(S'T'
S'P'
tp88
F0.1908
s(S'M'
S'V'
tp89
F-0.2127
s(S'Q'
S'L'
tp90
F-0.0172
s(S'E'
S'S'
tp91
F0.082299999999999998
s(S'H'
S'W'
tp92
F-0.02
s(S'I'
S'D'
tp93
F0.18920000000000001
s(S'K'
S'F'
tp94
F-0.041599999999999998
s(S'N'
S'A'
tp95
F0.10489999999999999
s(S'T'
S'I'
tp96
F-0.070000000000000007
s(S'Q'
S'N'
tp97
F-0.0050000000000000001
s(S'K'
S'W'
tp98
F-0.1152
s(S'S'
S'C'
tp99
F-0.0132
s(S'Y'
S'Y'
tp100
F-0.27929999999999999
s(S'G'
S'V'
tp101
F0.18590000000000001
s(S'L'
S'V'
tp102
F-0.45929999999999999
s(S'A'
S'R'
tp103
F0.10489999999999999
s(S'M'
S'R'
tp104
F-0.016299999999999999
s(S'Y'
S'L'
tp105
F-0.26140000000000002
s(S'D'
S'C'
tp106
F0.1169
s(S'P'
S'P'
tp107
F0.1077
s(S'D'
S'H'
tp108
F-0.074899999999999994
s(S'Q'
S'Q'
tp109
F-0.055
s(S'I'
S'V'
tp110
F-0.42230000000000001
s(S'P'
S'F'
tp111
F-0.060400000000000002
s(S'I'
S'A'
tp112
F-0.073700000000000002
s(S'F'
S'F'
tp113
F-0.30880000000000002
s(S'K'
S'T'
tp114
F0.046699999999999998
s(S'L'
S'T'
tp115
F-0.031600000000000003
s(S'S'
S'Q'
tp116
F0.1169
s(S'W'
S'F'
tp117
F-0.34050000000000002
s(S'D'
S'A'
tp118
F0.1018
s(S'E'
S'Y'
tp119
F-0.052200000000000003
s(S'K'
S'A'
tp120
F0.069099999999999995
s(S'Q'
S'S'
tp121
F0.1169
s(S'A'
S'D'
tp122
F0.1018
s(S'L'
S'R'
tp123
F-0.065100000000000005
s(S'T'
S'S'
tp124
F0.022800000000000001
s(S'A'
S'V'
tp125
F-0.1431
s(S'M'
S'N'
tp126
F0.0124
s(S'Q'
S'D'
tp127
F-0.072800000000000004
s(S'E'
S'P'
tp128
F0.22409999999999999
s(S'V'
S'V'
tp129
F-0.51929999999999998
s(S'D'
S'N'
tp130
F0.019199999999999998
s(S'I'
S'S'
tp131
F0.0332
s(S'P'
S'M'
tp132
F-0.0068999999999999999
s(S'H'
S'D'
tp133
F-0.074899999999999994
s(S'I'
S'L'
tp134
F-0.51119999999999999
s(S'K'
S'N'
tp135
F-0.038100000000000002
s(S'L'
S'P'
tp136
F0.074499999999999997
s(S'N'
S'L'
tp137
F0.088999999999999996
s(S'N'
S'I'
tp138
F0.14849999999999999
s(S'T'
S'Q'
tp139
F-0.024299999999999999
s(S'Q'
S'F'
tp140
F-0.017100000000000001
s(S'S'
S'M'
tp141
F0.018499999999999999
s(S'E'
S'R'
tp142
F-0.35110000000000002
s(S'Q'
S'W'
tp143
F-0.053999999999999999
s(S'G'
S'N'
tp144
F0.1196
s(S'L'
S'Y'
tp145
F-0.26140000000000002
s(S'L'
S'N'
tp146
F0.088999999999999996
s(S'A'
S'S'
tp147
F0.046399999999999997
s(S'D'
S'T'
tp148
F0.1043
s(S'S'
S'T'
tp149
F0.022800000000000001
s(S'P'
S'S'
tp150
F0.16259999999999999
s(S'V'
S'R'
tp151
F0.047500000000000001
s(S'D'
S'K'
tp152
F-0.1154
s(S'P'
S'H'
tp153
F0.029499999999999998
s(S'H'
S'C'
tp154
F-0.070099999999999996
s(S'Q'
S'I'
tp155
F-0.048000000000000001
s(S'H'
S'H'
tp156
F0.00050000000000000001
s(S'I'
S'I'
tp157
F-0.58520000000000005
s(S'L'
S'W'
tp158
F-0.26390000000000002
s(S'L'
S'L'
tp159
F-0.50670000000000004
s(S'D'
S'R'
tp160
F-0.18590000000000001
s(S'S'
S'I'
tp161
F0.0332
s(S'D'
S'I'
tp162
F0.18920000000000001
s(S'E'
S'A'
tp163
F0.1346
s(S'K'
S'I'
tp164
F0.068199999999999997
s(S'Q'
S'K'
tp165
F-0.073499999999999996
s(S'T'
S'D'
tp166
F0.1043
s(S'A'
S'W'
tp167
F-0.087999999999999995
s(S'Y'
S'R'
tp168
F-0.13689999999999999
s(S'M'
S'F'
tp169
F-0.17849999999999999
s(S'S'
S'P'
tp170
F0.16259999999999999
s(S'H'
S'Q'
tp171
F-0.012500000000000001
s(S'Y'
S'N'
tp172
F-0.1149
s(S'I'
S'P'
tp173
F0.088200000000000001
s(S'E'
S'C'
tp174
F0.155
s(S'H'
S'G'
tp175
F0.097900000000000001
s(S'P'
S'E'
tp176
F0.22409999999999999
s(S'Q'
S'M'
tp177
F-0.1038
s(S'H'
S'L'
tp178
F-0.016899999999999998
s(S'L'
S'S'
tp179
F0.095899999999999999
s(S'L'
S'H'
tp180
F-0.016899999999999998
s(S'N'
S'Q'
tp181
F-0.0050000000000000001
s(S'T'
S'Y'
tp182
F-0.14449999999999999
s(S'K'
S'G'
tp183
F0.1963
s(S'S'
S'E'
tp184
F0.082299999999999998
s(S'Y'
S'E'
tp185
F-0.052200000000000003
s(S'W'
S'R'
tp186
F-0.20699999999999999
s(S'V'
S'M'
tp187
F-0.2127
s(S'N'
S'R'
tp188
F-0.014999999999999999
s(S'G'
S'F'
tp189
F0.078899999999999998
s(S'F'
S'Y'
tp190
F-0.42120000000000002
s(S'L'
S'Q'
tp191
F-0.0172
s(S'M'
S'Y'
tp192
F-0.16209999999999999
s(S'A'
S'P'
tp193
F0.1462
s(S'S'
S'N'
tp194
F0.1452
s(S'C'
S'L'
tp195
F-0.1305
s(S'L'
S'F'
tp196
F-0.54500000000000004
s(S'D'
S'W'
tp197
F-0.0124
s(S'S'
S'L'
tp198
F0.095899999999999999
s(S'P'
S'R'
tp199
F-0.061400000000000003
s(S'P'
S'K'
tp200
F0.1099
s(S'Y'
S'G'
tp201
F-0.017600000000000001
s(S'C'
S'K'
tp202
F-0.033000000000000002
s(S'H'
S'K'
tp203
F0.039
s(S'Q'
S'A'
tp204
F-0.045699999999999998
s(S'I'
S'F'
tp205
F-0.37909999999999999
s(S'K'
S'D'
tp206
F-0.1154
s(S'N'
S'C'
tp207
F-0.084400000000000003
s(S'L'
S'D'
tp208
F0.26729999999999998
s(S'F'
S'V'
tp209
F-0.40010000000000001
s(S'S'
S'A'
tp210
F0.046399999999999997
s(S'W'
S'V'
tp211
F-0.2898
s(S'E'
S'I'
tp212
F0.1103
s(S'V'
S'I'
tp213
F-0.42230000000000001
s(S'Q'
S'C'
tp214
F0.071499999999999994
s(S'T'
S'G'
tp215
F0.17630000000000001
s(S'T'
S'L'
tp216
F-0.031600000000000003
s(S'L'
S'M'
tp217
F-0.1822
s(S'A'
S'T'
tp218
F0.031
s(S'C'
S'H'
tp219
F-0.070099999999999996
s(S'P'
S'Y'
tp220
F-0.1326
s(S'S'
S'H'
tp221
F-0.00050000000000000001
s(S'H'
S'Y'
tp222
F-0.1976
s(S'E'
S'K'
tp223
F-0.24030000000000001
s(S'C'
S'G'
tp224
F-0.098199999999999996
s(S'I'
S'C'
tp225
F-0.2235
s(S'Q'
S'E'
tp226
F-0.041300000000000003
s(S'K'
S'R'
tp227
F0.083900000000000002
s(S'T'
S'E'
tp228
F0.067500000000000004
s(S'L'
S'K'
tp229
F0.054300000000000001
s(S'M'
S'W'
tp230
F-0.077499999999999999
s(S'N'
S'Y'
tp231
F-0.1149
s(S'N'
S'H'
tp232
F0.038600000000000002
s(S'V'
S'E'
tp233
F0.10100000000000001
s(S'Q'
S'G'
tp234
F0.17100000000000001
s(S'Y'
S'D'
tp235
F-0.11650000000000001
s(S'F'
S'Q'
tp236
F-0.017100000000000001
s(S'G'
S'Y'
tp237
F-0.017600000000000001
s(S'L'
S'I'
tp238
F-0.51119999999999999
s(S'M'
S'Q'
tp239
F-0.1038
s(S'R'
S'A'
tp240
F0.10489999999999999
s(S'C'
S'D'
tp241
F0.1169
s(S'S'
S'V'
tp242
F0.17660000000000001
s(S'D'
S'D'
tp243
F0.084000000000000005
s(S'S'
S'D'
tp244
F0.0424
s(S'P'
S'C'
tp245
F0.0545
s(S'C'
S'C'
tp246
F-1.0442
s(S'W'
S'K'
tp247
F-0.1152
s(S'I'
S'N'
tp248
F0.14849999999999999
s(S'K'
S'L'
tp249
F0.054300000000000001
s(S'N'
S'K'
tp250
F-0.038100000000000002
s(S'L'
S'G'
tp251
F0.078200000000000006
s(S'M'
S'S'
tp252
F0.018499999999999999
s(S'R'
S'C'
tp253
F0.054399999999999997
s(S'R'
S'D'
tp254
F-0.18590000000000001
s(S'V'
S'A'
tp255
F-0.1431
s(S'W'
S'I'
tp256
F-0.1961
s(S'T'
S'T'
tp257
F0.014999999999999999
s(S'F'
S'M'
tp258
F-0.17849999999999999
s(S'L'
S'E'
tp259
F0.080199999999999994
s(S'M'
S'M'
tp260
F-0.10589999999999999
s(S'R'
S'E'
tp261
F-0.35110000000000002
s(S'W'
S'H'
tp262
F-0.02
s(S'S'
S'R'
tp263
F0.044200000000000003
s(S'E'
S'W'
tp264
F-0.096699999999999994
s(S'P'
S'Q'
tp265
F0.11269999999999999
s(S'H'
S'A'
tp266
F0.026599999999999999
s(S'Y'
S'A'
tp267
F-0.14080000000000001
s(S'E'
S'H'
tp268
F-0.082699999999999996
s(S'R'
S'F'
tp269
F-0.090399999999999994
s(S'I'
S'K'
tp270
F0.068199999999999997
s(S'N'
S'E'
tp271
F0.11459999999999999
s(S'T'
S'M'
tp272
F0.0018
s(S'T'
S'R'
tp273
F-0.021000000000000001
s(S'M'
S'T'
tp274
F0.0018
s(S'G'
S'S'
tp275
F0.1075
s(S'L'
S'C'
tp276
F-0.1305
s(S'R'
S'G'
tp277
F-0.025100000000000001
s(S'Y'
S'M'
tp278
F-0.16209999999999999
s(S'N'
S'F'
tp279
F0.0018
s(S'N'
S'P'
tp280
F0.156
s(S'R'
S'H'
tp281
F-0.0184
s(S'W'
S'M'
tp282
F-0.077499999999999999
s(S'C'
S'N'
tp283
F-0.084400000000000003
s(S'V'
S'L'
tp284
F-0.45929999999999999
s(S'F'
S'I'
tp285
F-0.37909999999999999
s(S'G'
S'Q'
tp286
F0.17100000000000001
s(S'L'
S'A'
tp287
F-0.1711
s(S'M'
S'I'
tp288
F-0.2137
s(S'R'
S'I'
tp289
F-0.026599999999999999
s(S'W'
S'L'
tp290
F-0.26390000000000002
s(S'D'
S'G'
tp291
F0.1115
s(S'D'
S'L'
tp292
F0.26729999999999998
s(S'I'
S'R'
tp293
F-0.026599999999999999
s(S'C'
S'M'
tp294
F-0.0557
s(S'H'
S'E'
tp295
F-0.082699999999999996
s(S'Y'
S'W'
tp296
F-0.32090000000000002
s(S'G'
S'P'
tp297
F0.21310000000000001
s(S'W'
S'C'
tp298
F-0.1176
s(S'M'
S'P'
tp299
F-0.0068999999999999999
s(S'N'
S'S'
tp300
F0.1452
s(S'G'
S'W'
tp301
F-0.15670000000000001
s(S'M'
S'K'
tp302
F0.086599999999999996
s(S'R'
S'K'
tp303
F0.083900000000000002
s(S'D'
S'E'
tp304
F0.15809999999999999
s(S'K'
S'E'
tp305
F-0.24030000000000001
s(S'R'
S'L'
tp306
F-0.065100000000000005
s(S'A'
S'I'
tp307
F-0.073700000000000002
s(S'V'
S'Y'
tp308
F-0.2792
s(S'W'
S'A'
tp309
F-0.087999999999999995
s(S'Y'
S'F'
tp310
F-0.42120000000000002
s(S'T'
S'W'
tp311
F0.0051999999999999998
s(S'V'
S'H'
tp312
F-0.0038999999999999998
s(S'F'
S'E'
tp313
F0.088499999999999995
s(S'M'
S'E'
tp314
F0.063700000000000007
s(S'R'
S'M'
tp315
F-0.016299999999999999
s(S'E'
S'T'
tp316
F0.067500000000000004
s(S'H'
S'R'
tp317
F-0.0184
s(S'P'
S'I'
tp318
F0.088200000000000001
s(S'F'
S'T'
tp319
F-0.112
s(S'C'
S'I'
tp320
F-0.2235
s(S'H'
S'I'
tp321
F-0.032599999999999997
s(S'G'
S'T'
tp322
F0.17630000000000001
s(S'I'
S'H'
tp323
F-0.032599999999999997
s(S'R'
S'N'
tp324
F-0.014999999999999999
s(S'C'
S'W'
tp325
F-0.1176
s(S'W'
S'G'
tp326
F-0.15670000000000001
s(S'N'
S'M'
tp327
F0.0124
s(S'Y'
S'I'
tp328
F-0.31640000000000001
s(S'M'
S'L'
tp329
F-0.1822
s(S'G'
S'K'
tp330
F0.1963
s(S'M'
S'G'
tp331
F-0.057299999999999997
s(S'K'
S'S'
tp332
F0.16900000000000001
s(S'E'
S'V'
tp333
F0.10100000000000001
s(S'N'
S'N'
tp334
F-0.091700000000000004
s(S'V'
S'K'
tp335
F0.060900000000000003
s(S'R'
S'P'
tp336
F-0.061400000000000003
s(S'A'
S'M'
tp337
F-0.084699999999999998
s(S'W'
S'E'
tp338
F-0.096699999999999994
s(S'F'
S'W'
tp339
F-0.34050000000000002
s(S'C'
S'F'
tp340
F-0.32619999999999999
s(S'V'
S'D'
tp341
F0.27279999999999999
s(S'F'
S'A'
tp342
F-0.1119
s(S'G'
S'I'
tp343
F0.1174
s(S'M'
S'A'
tp344
F-0.084699999999999998
s(S'R'
S'Q'
tp345
F0.0058999999999999999
s(S'C'
S'T'
tp346
F-0.0012999999999999999
s(S'W'
S'D'
tp347
F-0.0124
s(S'H'
S'V'
tp348
F-0.0038999999999999998
s(S'S'
S'F'
tp349
F0.039800000000000002
s(S'P'
S'T'
tp350
F0.1908
s(S'F'
S'P'
tp351
F-0.060400000000000002
s(S'C'
S'E'
tp352
F0.155
s(S'H'
S'M'
tp353
F-0.034500000000000003
s(S'I'
S'E'
tp354
F0.1103
s(S'G'
S'H'
tp355
F0.097900000000000001
s(S'R'
S'R'
tp356
F0.030599999999999999
s(S'K'
S'P'
tp357
F0.1099
s(S'C'
S'S'
tp358
F-0.0132
s(S'D'
S'V'
tp359
F0.27279999999999999
s(S'M'
S'H'
tp360
F-0.034500000000000003
s(S'M'
S'C'
tp361
F-0.0557
s(S'R'
S'S'
tp362
F0.044200000000000003
s(S'D'
S'M'
tp363
F-0.019699999999999999
s(S'E'
S'E'
tp364
F0.12590000000000001
s(S'K'
S'M'
tp365
F0.086599999999999996
s(S'V'
S'G'
tp366
F0.18590000000000001
s(S'R'
S'T'
tp367
F-0.021000000000000001
s(S'A'
S'A'
tp368
F-0.047899999999999998
s(S'V'
S'Q'
tp369
F0.1061
s(S'W'
S'Y'
tp370
F-0.32090000000000002
s(S'F'
S'S'
tp371
F0.039800000000000002
s(S'G'
S'M'
tp372
F-0.057299999999999997
s(S'C'
S'P'
tp373
F0.0545
s(S'E'
S'G'
tp374
F0.2311
s(S'I'
S'W'
tp375
F-0.1961
s(S'P'
S'A'
tp376
F0.1462
s(S'F'
S'L'
tp377
F-0.54500000000000004
s(S'C'
S'A'
tp378
F-0.1085
s(S'G'
S'L'
tp379
F0.078200000000000006
s(S'R'
S'V'
tp380
F0.047500000000000001
s(S'T'
S'F'
tp381
F-0.112
s(S'Y'
S'P'
tp382
F-0.1326
s(S'M'
S'D'
tp383
F-0.019699999999999999
s(S'G'
S'C'
tp384
F-0.098199999999999996
s(S'R'
S'W'
tp385
F-0.20699999999999999
s(S'N'
S'D'
tp386
F0.019199999999999998
s(S'N'
S'V'
tp387
F0.11799999999999999
s(S'V'
S'C'
tp388
F-0.2349
s(S'A'
S'E'
tp389
F0.1346
s(S'Y'
S'H'
tp390
F-0.1976
s(S'D'
S'P'
tp391
F0.23860000000000001
s(S'G'
S'A'
tp392
F0.18440000000000001
s(S'R'
S'Y'
tp393
F-0.13689999999999999
s(S'P'
S'W'
tp394
F-0.090999999999999998
s(S'Y'
S'C'
tp395
F-0.24440000000000001
s(S'P'
S'L'
tp396
F0.074499999999999997
s(S'F'
S'H'
tp397
F-0.125
s(S'I'
S'M'
tp398
F-0.2137
s(S'Y'
S'T'
tp399
F-0.14449999999999999
s(S'N'
S'G'
tp400
F0.1196
s(S'W'
S'S'
tp401
F-0.080199999999999994
s.