(dp1
S'A'
F1.8
sS'C'
F2.5
sS'E'
F-3.5
sS'D'
F-3.5
sS'G'
F-0.40000000000000002
sS'F'
F2.7999999999999998
sS'I'
F4.5
sS'H'
F-3.2000000000000002
sS'K'
F-3.8999999999999999
sS'M'
F1.8999999999999999
sS'L'
F3.7999999999999998
sS'N'
F-3.5
sS'Q'
F-3.5
sS'P'
F-1.6000000000000001
sS'S'
F-0.80000000000000004
sS'R'
F-4.5
sS'T'
F-0.69999999999999996
sS'W'
F-0.90000000000000002
sS'V'
F4.2000000000000002
sS'Y'
F-1.3
s.