(dp1
(S'S'
S'W'
tp2
F-0.10000000000000001
s(S'G'
S'G'
tp3
F1.5
s(S'E'
S'M'
tp4
F0.40000000000000002
s(S'A'
S'N'
tp5
F0.90000000000000002
s(S'A'
S'Y'
tp6
F-0.40000000000000002
s(S'W'
S'Q'
tp7
F-0.40000000000000002
s(S'V'
S'N'
tp8
F0.5
s(S'F'
S'K'
tp9
F0.40000000000000002
s(S'G'
S'E'
tp10
F1.1000000000000001
s(S'E'
S'D'
tp11
F0.90000000000000002
s(S'W'
S'P'
tp12
F-0.80000000000000004
s(S'I'
S'T'
tp13
F-0.29999999999999999
s(S'F'
S'D'
tp14
F0.5
s(S'K'
S'V'
tp15
F0.69999999999999996
s(S'C'
S'Y'
tp16
F-0.10000000000000001
s(S'G'
S'D'
tp17
F0.80000000000000004
s(S'T'
S'N'
tp18
F0.29999999999999999
s(S'W'
S'W'
tp19
F-1.2
s(S'S'
S'S'
tp20
F0.59999999999999998
s(S'K'
S'C'
tp21
F1.3
s(S'E'
S'F'
tp22
F0.40000000000000002
s(S'Y'
S'Q'
tp23
F-0.29999999999999999
s(S'A'
S'K'
tp24
F1.3
s(S'Q'
S'P'
tp25
F0.20000000000000001
s(S'F'
S'G'
tp26
F0.29999999999999999
s(S'D'
S'S'
tp27
F0.69999999999999996
s(S'C'
S'V'
tp28
F-0.59999999999999998
s(S'V'
S'T'
tp29
F-0.20000000000000001
s(S'H'
S'P'
tp30
F0
s(S'P'
S'V'
tp31
F-0.10000000000000001
s(S'I'
S'Q'
tp32
F0.10000000000000001
s(S'Y'
S'K'
tp33
F-0.20000000000000001
s(S'W'
S'T'
tp34
F-0.20000000000000001
s(S'H'
S'F'
tp35
F-0.40000000000000002
s(S'P'
S'D'
tp36
F0.90000000000000002
s(S'Q'
S'R'
tp37
F0.20000000000000001
s(S'D'
S'Q'
tp38
F0.59999999999999998
s(S'K'
S'Q'
tp39
F0.5
s(S'D'
S'F'
tp40
F0.5
s(S'V'
S'W'
tp41
F-1.1000000000000001
s(S'T'
S'C'
tp42
F0.5
s(S'A'
S'F'
tp43
F-0.20000000000000001
s(S'T'
S'H'
tp44
F0.10000000000000001
s(S'A'
S'Q'
tp45
F0.59999999999999998
s(S'Q'
S'T'
tp46
F0.40000000000000002
s(S'V'
S'F'
tp47
F-1.1000000000000001
s(S'F'
S'C'
tp48
F-0.59999999999999998
s(S'C'
S'R'
tp49
F0.69999999999999996
s(S'V'
S'P'
tp50
F-0.10000000000000001
s(S'H'
S'T'
tp51
F0.10000000000000001
s(S'E'
S'L'
tp52
F0.59999999999999998
s(S'F'
S'R'
tp53
F-0.40000000000000002
s(S'I'
S'G'
tp54
F0.40000000000000002
s(S'C'
S'Q'
tp55
F0.29999999999999999
s(S'Y'
S'V'
tp56
F-0.80000000000000004
s(S'T'
S'A'
tp57
F0.5
s(S'T'
S'V'
tp58
F-0.20000000000000001
s(S'Q'
S'V'
tp59
F0.20000000000000001
s(S'S'
S'K'
tp60
F0.90000000000000002
s(S'K'
S'K'
tp61
F2.1000000000000001
s(S'E'
S'N'
tp62
F0.5
s(S'N'
S'T'
tp63
F0.29999999999999999
s(S'A'
S'H'
tp64
F0.40000000000000002
s(S'A'
S'C'
tp65
F0.59999999999999998
s(S'V'
S'S'
tp66
F0.40000000000000002
s(S'Q'
S'H'
tp67
F0.10000000000000001
s(S'H'
S'S'
tp68
F0
s(S'Q'
S'Y'
tp69
F-0.29999999999999999
s(S'P'
S'N'
tp70
F0.5
s(S'I'
S'Y'
tp71
F-1
s(S'P'
S'G'
tp72
F0.80000000000000004
s(S'F'
S'N'
tp73
F0.10000000000000001
s(S'H'
S'N'
tp74
F0.20000000000000001
s(S'K'
S'H'
tp75
F1
s(S'N'
S'W'
tp76
F0
s(S'S'
S'Y'
tp77
F0.10000000000000001
s(S'W'
S'N'
tp78
F0
s(S'D'
S'Y'
tp79
F-0.20000000000000001
s(S'E'
S'Q'
tp80
F0.80000000000000004
s(S'K'
S'Y'
tp81
F-0.20000000000000001
s(S'S'
S'G'
tp82
F0.80000000000000004
s(S'Y'
S'S'
tp83
F0.10000000000000001
s(S'G'
S'R'
tp84
F0.20000000000000001
s(S'A'
S'L'
tp85
F-0.29999999999999999
s(S'A'
S'G'
tp86
F1.2
s(S'T'
S'K'
tp87
F0.80000000000000004
s(S'T'
S'P'
tp88
F0.20000000000000001
s(S'M'
S'V'
tp89
F-0.80000000000000004
s(S'Q'
S'L'
tp90
F0.20000000000000001
s(S'E'
S'S'
tp91
F0.59999999999999998
s(S'H'
S'W'
tp92
F-0.90000000000000002
s(S'I'
S'D'
tp93
F0.5
s(S'K'
S'F'
tp94
F0.40000000000000002
s(S'N'
S'A'
tp95
F0.90000000000000002
s(S'T'
S'I'
tp96
F-0.29999999999999999
s(S'Q'
S'N'
tp97
F0.20000000000000001
s(S'K'
S'W'
tp98
F-0.10000000000000001
s(S'S'
S'C'
tp99
F0.59999999999999998
s(S'Y'
S'Y'
tp100
F-0.80000000000000004
s(S'G'
S'V'
tp101
F0.5
s(S'L'
S'V'
tp102
F-1.2
s(S'A'
S'R'
tp103
F0.59999999999999998
s(S'M'
S'R'
tp104
F0.20000000000000001
s(S'Y'
S'L'
tp105
F-0.90000000000000002
s(S'D'
S'C'
tp106
F0.80000000000000004
s(S'P'
S'P'
tp107
F0.40000000000000002
s(S'D'
S'H'
tp108
F-0.10000000000000001
s(S'Q'
S'Q'
tp109
F0.29999999999999999
s(S'I'
S'V'
tp110
F-1.2
s(S'P'
S'F'
tp111
F-0.10000000000000001
s(S'I'
S'A'
tp112
F-0.59999999999999998
s(S'F'
S'F'
tp113
F-1.5
s(S'K'
S'T'
tp114
F0.80000000000000004
s(S'L'
S'T'
tp115
F0
s(S'S'
S'Q'
tp116
F0.59999999999999998
s(S'W'
S'F'
tp117
F-1.5
s(S'D'
S'A'
tp118
F1.2
s(S'E'
S'Y'
tp119
F-0.20000000000000001
s(S'K'
S'A'
tp120
F1.3
s(S'Q'
S'S'
tp121
F0.59999999999999998
s(S'A'
S'D'
tp122
F1.2
s(S'L'
S'R'
tp123
F-0.10000000000000001
s(S'T'
S'S'
tp124
F0.40000000000000002
s(S'A'
S'V'
tp125
F-0.40000000000000002
s(S'M'
S'N'
tp126
F0.29999999999999999
s(S'Q'
S'D'
tp127
F0.59999999999999998
s(S'E'
S'P'
tp128
F0.69999999999999996
s(S'V'
S'V'
tp129
F-1.2
s(S'D'
S'N'
tp130
F0.40000000000000002
s(S'I'
S'S'
tp131
F0.29999999999999999
s(S'P'
S'M'
tp132
F-0.20000000000000001
s(S'H'
S'D'
tp133
F-0.10000000000000001
s(S'I'
S'L'
tp134
F-1.3
s(S'K'
S'N'
tp135
F0.69999999999999996
s(S'L'
S'P'
tp136
F0
s(S'N'
S'L'
tp137
F0.40000000000000002
s(S'N'
S'I'
tp138
F0.5
s(S'T'
S'Q'
tp139
F0.40000000000000002
s(S'Q'
S'F'
tp140
F-0.10000000000000001
s(S'S'
S'M'
tp141
F0.40000000000000002
s(S'E'
S'R'
tp142
F-0.40000000000000002
s(S'Q'
S'W'
tp143
F-0.40000000000000002
s(S'G'
S'N'
tp144
F0.69999999999999996
s(S'L'
S'Y'
tp145
F-0.90000000000000002
s(S'L'
S'N'
tp146
F0.40000000000000002
s(S'A'
S'S'
tp147
F0.90000000000000002
s(S'D'
S'T'
tp148
F0.5
s(S'S'
S'T'
tp149
F0.40000000000000002
s(S'P'
S'S'
tp150
F0.59999999999999998
s(S'V'
S'R'
tp151
F0
s(S'D'
S'K'
tp152
F0.20000000000000001
s(S'P'
S'H'
tp153
F0
s(S'H'
S'C'
tp154
F0.10000000000000001
s(S'Q'
S'I'
tp155
F0.10000000000000001
s(S'H'
S'H'
tp156
F-0.80000000000000004
s(S'I'
S'I'
tp157
F-1.3999999999999999
s(S'L'
S'W'
tp158
F-1.3999999999999999
s(S'L'
S'L'
tp159
F-1.2
s(S'D'
S'R'
tp160
F-0.5
s(S'S'
S'I'
tp161
F0.29999999999999999
s(S'D'
S'I'
tp162
F0.5
s(S'E'
S'A'
tp163
F1.2
s(S'K'
S'I'
tp164
F0.5
s(S'Q'
S'K'
tp165
F0.5
s(S'T'
S'D'
tp166
F0.5
s(S'A'
S'W'
tp167
F-0.59999999999999998
s(S'Y'
S'R'
tp168
F-0.69999999999999996
s(S'M'
S'F'
tp169
F-1.3
s(S'S'
S'P'
tp170
F0.59999999999999998
s(S'H'
S'Q'
tp171
F0.10000000000000001
s(S'Y'
S'N'
tp172
F-0.20000000000000001
s(S'I'
S'P'
tp173
F0
s(S'E'
S'C'
tp174
F0.90000000000000002
s(S'H'
S'G'
tp175
F0.69999999999999996
s(S'P'
S'E'
tp176
F0.69999999999999996
s(S'Q'
S'M'
tp177
F0.10000000000000001
s(S'H'
S'L'
tp178
F-0.10000000000000001
s(S'L'
S'S'
tp179
F0.40000000000000002
s(S'L'
S'H'
tp180
F-0.10000000000000001
s(S'N'
S'Q'
tp181
F0.20000000000000001
s(S'T'
S'Y'
tp182
F-0.20000000000000001
s(S'K'
S'G'
tp183
F0.90000000000000002
s(S'S'
S'E'
tp184
F0.59999999999999998
s(S'Y'
S'E'
tp185
F-0.20000000000000001
s(S'W'
S'R'
tp186
F-0.59999999999999998
s(S'V'
S'M'
tp187
F-0.80000000000000004
s(S'N'
S'R'
tp188
F0
s(S'G'
S'F'
tp189
F0.29999999999999999
s(S'F'
S'Y'
tp190
F-1
s(S'L'
S'Q'
tp191
F0.20000000000000001
s(S'M'
S'Y'
tp192
F-1.1000000000000001
s(S'A'
S'P'
tp193
F0.59999999999999998
s(S'S'
S'N'
tp194
F0.69999999999999996
s(S'C'
S'L'
tp195
F-0.40000000000000002
s(S'L'
S'F'
tp196
F-1.3
s(S'D'
S'W'
tp197
F0
s(S'S'
S'L'
tp198
F0.40000000000000002
s(S'P'
S'R'
tp199
F0.10000000000000001
s(S'P'
S'K'
tp200
F0.90000000000000002
s(S'Y'
S'G'
tp201
F0.10000000000000001
s(S'C'
S'K'
tp202
F1.3
s(S'H'
S'K'
tp203
F1
s(S'Q'
S'A'
tp204
F0.59999999999999998
s(S'I'
S'F'
tp205
F-1.3
s(S'K'
S'D'
tp206
F0.20000000000000001
s(S'N'
S'C'
tp207
F0.59999999999999998
s(S'L'
S'D'
tp208
F0.69999999999999996
s(S'F'
S'V'
tp209
F-1.1000000000000001
s(S'S'
S'A'
tp210
F0.90000000000000002
s(S'W'
S'V'
tp211
F-1.1000000000000001
s(S'E'
S'I'
tp212
F0.40000000000000002
s(S'V'
S'I'
tp213
F-1.2
s(S'Q'
S'C'
tp214
F0.29999999999999999
s(S'T'
S'G'
tp215
F0.5
s(S'T'
S'L'
tp216
F0
s(S'L'
S'M'
tp217
F-1
s(S'A'
S'T'
tp218
F0.5
s(S'C'
S'H'
tp219
F0.10000000000000001
s(S'P'
S'Y'
tp220
F-0.5
s(S'S'
S'H'
tp221
F0
s(S'H'
S'Y'
tp222
F-0.80000000000000004
s(S'E'
S'K'
tp223
F0
s(S'C'
S'G'
tp224
F1.3
s(S'I'
S'C'
tp225
F-0.5
s(S'Q'
S'E'
tp226
F0.80000000000000004
s(S'K'
S'R'
tp227
F1.1000000000000001
s(S'T'
S'E'
tp228
F0.40000000000000002
s(S'L'
S'K'
tp229
F0.5
s(S'M'
S'W'
tp230
F-1.5
s(S'N'
S'Y'
tp231
F-0.20000000000000001
s(S'N'
S'H'
tp232
F0.20000000000000001
s(S'V'
S'E'
tp233
F0.5
s(S'Q'
S'G'
tp234
F0.80000000000000004
s(S'Y'
S'D'
tp235
F-0.20000000000000001
s(S'F'
S'Q'
tp236
F-0.10000000000000001
s(S'G'
S'Y'
tp237
F0.10000000000000001
s(S'L'
S'I'
tp238
F-1.3
s(S'M'
S'Q'
tp239
F0.10000000000000001
s(S'R'
S'A'
tp240
F0.59999999999999998
s(S'C'
S'D'
tp241
F0.80000000000000004
s(S'S'
S'V'
tp242
F0.40000000000000002
s(S'D'
S'D'
tp243
F0.90000000000000002
s(S'S'
S'D'
tp244
F0.69999999999999996
s(S'P'
S'C'
tp245
F0.40000000000000002
s(S'C'
S'C'
tp246
F-1.3
s(S'W'
S'K'
tp247
F-0.10000000000000001
s(S'I'
S'N'
tp248
F0.5
s(S'K'
S'L'
tp249
F0.5
s(S'N'
S'K'
tp250
F0.69999999999999996
s(S'L'
S'G'
tp251
F0.40000000000000002
s(S'M'
S'S'
tp252
F0.40000000000000002
s(S'R'
S'C'
tp253
F0.69999999999999996
s(S'R'
S'D'
tp254
F-0.5
s(S'V'
S'A'
tp255
F-0.40000000000000002
s(S'W'
S'I'
tp256
F-1.3
s(S'T'
S'T'
tp257
F0.10000000000000001
s(S'F'
S'M'
tp258
F-1.3
s(S'L'
S'E'
tp259
F0.59999999999999998
s(S'M'
S'M'
tp260
F-1.1000000000000001
s(S'R'
S'E'
tp261
F-0.40000000000000002
s(S'W'
S'H'
tp262
F-0.90000000000000002
s(S'S'
S'R'
tp263
F0.20000000000000001
s(S'E'
S'W'
tp264
F-0.10000000000000001
s(S'P'
S'Q'
tp265
F0.20000000000000001
s(S'H'
S'A'
tp266
F0.40000000000000002
s(S'Y'
S'A'
tp267
F-0.40000000000000002
s(S'E'
S'H'
tp268
F0.10000000000000001
s(S'R'
S'F'
tp269
F-0.40000000000000002
s(S'I'
S'K'
tp270
F0.5
s(S'N'
S'E'
tp271
F0.5
s(S'T'
S'M'
tp272
F0
s(S'T'
S'R'
tp273
F0
s(S'M'
S'T'
tp274
F0
s(S'G'
S'S'
tp275
F0.80000000000000004
s(S'L'
S'C'
tp276
F-0.40000000000000002
s(S'R'
S'G'
tp277
F0.20000000000000001
s(S'Y'
S'M'
tp278
F-1.1000000000000001
s(S'N'
S'F'
tp279
F0.10000000000000001
s(S'N'
S'P'
tp280
F0.5
s(S'R'
S'H'
tp281
F-0.10000000000000001
s(S'W'
S'M'
tp282
F-1.5
s(S'C'
S'N'
tp283
F0.59999999999999998
s(S'V'
S'L'
tp284
F-1.2
s(S'F'
S'I'
tp285
F-1.3
s(S'G'
S'Q'
tp286
F0.80000000000000004
s(S'L'
S'A'
tp287
F-0.29999999999999999
s(S'M'
S'I'
tp288
F-1
s(S'R'
S'I'
tp289
F-0.20000000000000001
s(S'W'
S'L'
tp290
F-1.3999999999999999
s(S'D'
S'G'
tp291
F0.80000000000000004
s(S'D'
S'L'
tp292
F0.69999999999999996
s(S'I'
S'R'
tp293
F-0.20000000000000001
s(S'C'
S'M'
tp294
F-0.29999999999999999
s(S'H'
S'E'
tp295
F0.10000000000000001
s(S'Y'
S'W'
tp296
F-1.2
s(S'G'
S'P'
tp297
F0.80000000000000004
s(S'W'
S'C'
tp298
F-0.69999999999999996
s(S'M'
S'P'
tp299
F-0.20000000000000001
s(S'N'
S'S'
tp300
F0.69999999999999996
s(S'G'
S'W'
tp301
F0
s(S'M'
S'K'
tp302
F0.59999999999999998
s(S'R'
S'K'
tp303
F1.1000000000000001
s(S'D'
S'E'
tp304
F0.90000000000000002
s(S'K'
S'E'
tp305
F0
s(S'R'
S'L'
tp306
F-0.10000000000000001
s(S'A'
S'I'
tp307
F-0.59999999999999998
s(S'V'
S'Y'
tp308
F-0.80000000000000004
s(S'W'
S'A'
tp309
F-0.59999999999999998
s(S'Y'
S'F'
tp310
F-1
s(S'T'
S'W'
tp311
F-0.20000000000000001
s(S'V'
S'H'
tp312
F0
s(S'F'
S'E'
tp313
F0.40000000000000002
s(S'M'
S'E'
tp314
F0.40000000000000002
s(S'R'
S'M'
tp315
F0.20000000000000001
s(S'E'
S'T'
tp316
F0.40000000000000002
s(S'H'
S'R'
tp317
F-0.10000000000000001
s(S'P'
S'I'
tp318
F0
s(S'F'
S'T'
tp319
F-0.20000000000000001
s(S'C'
S'I'
tp320
F-0.5
s(S'H'
S'I'
tp321
F-0.10000000000000001
s(S'G'
S'T'
tp322
F0.5
s(S'I'
S'H'
tp323
F-0.10000000000000001
s(S'R'
S'N'
tp324
F0
s(S'C'
S'W'
tp325
F-0.69999999999999996
s(S'W'
S'G'
tp326
F0
s(S'N'
S'M'
tp327
F0.29999999999999999
s(S'Y'
S'I'
tp328
F-1
s(S'M'
S'L'
tp329
F-1
s(S'G'
S'K'
tp330
F0.90000000000000002
s(S'M'
S'G'
tp331
F0.5
s(S'K'
S'S'
tp332
F0.90000000000000002
s(S'E'
S'V'
tp333
F0.5
s(S'N'
S'N'
tp334
F0.10000000000000001
s(S'V'
S'K'
tp335
F0.69999999999999996
s(S'R'
S'P'
tp336
F0.10000000000000001
s(S'A'
S'M'
tp337
F-0.29999999999999999
s(S'W'
S'E'
tp338
F-0.10000000000000001
s(S'F'
S'W'
tp339
F-1.5
s(S'C'
S'F'
tp340
F-0.59999999999999998
s(S'V'
S'D'
tp341
F1
s(S'F'
S'A'
tp342
F-0.20000000000000001
s(S'G'
S'I'
tp343
F0.40000000000000002
s(S'M'
S'A'
tp344
F-0.29999999999999999
s(S'R'
S'Q'
tp345
F0.20000000000000001
s(S'C'
S'T'
tp346
F0.5
s(S'W'
S'D'
tp347
F0
s(S'H'
S'V'
tp348
F0
s(S'S'
S'F'
tp349
F0.10000000000000001
s(S'P'
S'T'
tp350
F0.20000000000000001
s(S'F'
S'P'
tp351
F-0.10000000000000001
s(S'C'
S'E'
tp352
F0.90000000000000002
s(S'H'
S'M'
tp353
F-0.40000000000000002
s(S'I'
S'E'
tp354
F0.40000000000000002
s(S'G'
S'H'
tp355
F0.69999999999999996
s(S'R'
S'R'
tp356
F-0.10000000000000001
s(S'K'
S'P'
tp357
F0.90000000000000002
s(S'C'
S'S'
tp358
F0.59999999999999998
s(S'D'
S'V'
tp359
F1
s(S'M'
S'H'
tp360
F-0.40000000000000002
s(S'M'
S'C'
tp361
F-0.29999999999999999
s(S'R'
S'S'
tp362
F0.20000000000000001
s(S'D'
S'M'
tp363
F0.59999999999999998
s(S'E'
S'E'
tp364
F1.2
s(S'K'
S'M'
tp365
F0.59999999999999998
s(S'V'
S'G'
tp366
F0.5
s(S'R'
S'T'
tp367
F0
s(S'A'
S'A'
tp368
F0.80000000000000004
s(S'V'
S'Q'
tp369
F0.20000000000000001
s(S'W'
S'Y'
tp370
F-1.2
s(S'F'
S'S'
tp371
F0.10000000000000001
s(S'G'
S'M'
tp372
F0.5
s(S'C'
S'P'
tp373
F0.40000000000000002
s(S'E'
S'G'
tp374
F1.1000000000000001
s(S'I'
S'W'
tp375
F-1.3
s(S'P'
S'A'
tp376
F0.59999999999999998
s(S'F'
S'L'
tp377
F-1.3
s(S'C'
S'A'
tp378
F0.59999999999999998
s(S'G'
S'L'
tp379
F0.40000000000000002
s(S'R'
S'V'
tp380
F0
s(S'T'
S'F'
tp381
F-0.20000000000000001
s(S'Y'
S'P'
tp382
F-0.5
s(S'M'
S'D'
tp383
F0.59999999999999998
s(S'G'
S'C'
tp384
F1.3
s(S'R'
S'W'
tp385
F-0.59999999999999998
s(S'N'
S'D'
tp386
F0.40000000000000002
s(S'N'
S'V'
tp387
F0.5
s(S'V'
S'C'
tp388
F-0.59999999999999998
s(S'A'
S'E'
tp389
F1.2
s(S'Y'
S'H'
tp390
F-0.80000000000000004
s(S'D'
S'P'
tp391
F0.90000000000000002
s(S'G'
S'A'
tp392
F1.2
s(S'R'
S'Y'
tp393
F-0.69999999999999996
s(S'P'
S'W'
tp394
F-0.80000000000000004
s(S'Y'
S'C'
tp395
F-0.10000000000000001
s(S'P'
S'L'
tp396
F0
s(S'F'
S'H'
tp397
F-0.40000000000000002
s(S'I'
S'M'
tp398
F-1
s(S'Y'
S'T'
tp399
F-0.20000000000000001
s(S'N'
S'G'
tp400
F0.69999999999999996
s(S'W'
S'S'
tp401
F-0.10000000000000001
s.